; Function Attrs: mustprogress uwtable
define void @_ZN3zmq12raw_engine_t5errorENS_8i_engine14error_reason_tE(ptr noundef nonnull align 8 dereferenceable(1696) %this, i32 noundef %reason_) unnamed_addr #0 align 2 {
entry:
  %terminator = alloca %"class.zmq::msg_t", align 8
  %raw_socket = getelementptr inbounds i8, ptr %this, i64 395
  %0 = load i8, ptr %raw_socket, align 1
  %1 = and i8 %0, 1
  %tobool.not = icmp eq i8 %1, 0
  br i1 %tobool.not, label %if.end, label %land.lhs.true

land.lhs.true:                                    ; preds = %entry
  %raw_notify = getelementptr inbounds i8, ptr %this, i64 396
  %2 = load i8, ptr %raw_notify, align 4
  %3 = and i8 %2, 1
  %tobool3.not = icmp eq i8 %3, 0
  br i1 %tobool3.not, label %if.end, label %if.then

if.then:                                          ; preds = %land.lhs.true
  %call = call noundef i32 @_ZN3zmq5msg_t4initEv(ptr noundef nonnull align 8 dereferenceable(64) %terminator)
  %_metadata.i = getelementptr inbounds i8, ptr %this, i64 1448
  %4 = load ptr, ptr %_metadata.i, align 8
  %tobool.not.i = icmp eq ptr %4, null
  br i1 %tobool.not.i, label %_ZN3zmq12raw_engine_t23push_raw_msg_to_sessionEPNS_5msg_tE.exit, label %land.lhs.true.i

land.lhs.true.i:                                  ; preds = %if.then
  %call.i = call noundef ptr @_ZNK3zmq5msg_t8metadataEv(ptr noundef nonnull align 8 dereferenceable(64) %terminator)
  %cmp.not.i = icmp eq ptr %4, %call.i
  br i1 %cmp.not.i, label %_ZN3zmq12raw_engine_t23push_raw_msg_to_sessionEPNS_5msg_tE.exit, label %if.then.i

if.then.i:                                        ; preds = %land.lhs.true.i
  %5 = load ptr, ptr %_metadata.i, align 8
  call void @_ZN3zmq5msg_t12set_metadataEPNS_10metadata_tE(ptr noundef nonnull align 8 dereferenceable(64) %terminator, ptr noundef %5)
  br label %_ZN3zmq12raw_engine_t23push_raw_msg_to_sessionEPNS_5msg_tE.exit

_ZN3zmq12raw_engine_t23push_raw_msg_to_sessionEPNS_5msg_tE.exit: ; preds = %if.then, %land.lhs.true.i, %if.then.i
  %call4.i = call noundef i32 @_ZN3zmq20stream_engine_base_t19push_msg_to_sessionEPNS_5msg_tE(ptr noundef nonnull align 8 dereferenceable(1689) %this, ptr noundef nonnull %terminator)
  %call5 = call noundef i32 @_ZN3zmq5msg_t5closeEv(ptr noundef nonnull align 8 dereferenceable(64) %terminator)
  br label %if.end

if.end:                                           ; preds = %_ZN3zmq12raw_engine_t23push_raw_msg_to_sessionEPNS_5msg_tE.exit, %land.lhs.true, %entry
  call void @_ZN3zmq20stream_engine_base_t5errorENS_8i_engine14error_reason_tE(ptr noundef nonnull align 8 dereferenceable(1689) %this, i32 noundef %reason_)
  ret void
}